target datalayout = "e-m:e-p270:32:32-p271:32:32-p272:64:64-i64:64-i128:128-f80:128-n8:16:32:64-S128"
target triple = "x86_64-pc-linux-gnu"

%"class.std::__cxx11::basic_string" = type { %"struct.std::__cxx11::basic_string<char>::_Alloc_hider", i64, %union.anon }
%"struct.std::__cxx11::basic_string<char>::_Alloc_hider" = type { ptr }
%union.anon = type { i64, [8 x i8] }
%class.cmCursesLongMessageForm = type { %class.cmCursesForm, %"class.std::__cxx11::basic_string", %"class.std::__cxx11::basic_string", i32, [2 x ptr] }
%class.cmCursesForm = type { ptr, ptr }

; Function Attrs: mustprogress uwtable
define dso_local void @_ZNK23cmCursesLongMessageForm11DrawMessageEPKc(ptr noundef nonnull align 8 dereferenceable(104) %0, ptr noundef %1) #0 align 2 {
  %3 = alloca ptr, align 8
  %4 = alloca ptr, align 8
  %5 = alloca i32, align 4
  store ptr %0, ptr %3, align 8
  store ptr %1, ptr %4, align 8
  %6 = load ptr, ptr %3, align 8
  store i32 0, ptr %5, align 4
  br label %7

7:                                                ; preds = %54, %2
  %8 = load ptr, ptr %4, align 8
  %9 = load i32, ptr %5, align 4
  %10 = sext i32 %9 to i64
  %11 = getelementptr inbounds i8, ptr %8, i64 %10
  %12 = load i8, ptr %11, align 1
  %13 = sext i8 %12 to i32
  %14 = icmp ne i32 %13, 0
  br i1 %14, label %15, label %18

15:                                               ; preds = %7
  %16 = load i32, ptr %5, align 4
  %17 = icmp slt i32 %16, 60000
  br label %18

18:                                               ; preds = %15, %7
  %19 = phi i1 [ false, %7 ], [ %17, %15 ]
  br i1 %19, label %20, label %57

20:                                               ; preds = %18
  %21 = load ptr, ptr %4, align 8
  %22 = load i32, ptr %5, align 4
  %23 = sext i32 %22 to i64
  %24 = getelementptr inbounds i8, ptr %21, i64 %23
  %25 = load i8, ptr %24, align 1
  %26 = sext i8 %25 to i32
  %27 = icmp eq i32 %26, 10
  br i1 %27, label %28, label %44

28:                                               ; preds = %20
  %29 = load ptr, ptr %4, align 8
  %30 = load i32, ptr %5, align 4
  %31 = add nsw i32 %30, 1
  %32 = sext i32 %31 to i64
  %33 = getelementptr inbounds i8, ptr %29, i64 %32
  %34 = load i8, ptr %33, align 1
  %35 = sext i8 %34 to i32
  %36 = icmp ne i32 %35, 0
  br i1 %36, label %37, label %44

37:                                               ; preds = %28
  %38 = getelementptr inbounds %class.cmCursesForm, ptr %6, i32 0, i32 1
  %39 = load ptr, ptr %38, align 8
  %40 = call i32 @form_driver(ptr noundef %39, i32 noundef 530)
  %41 = getelementptr inbounds %class.cmCursesForm, ptr %6, i32 0, i32 1
  %42 = load ptr, ptr %41, align 8
  %43 = call i32 @form_driver(ptr noundef %42, i32 noundef 536)
  br label %54

44:                                               ; preds = %28, %20
  %45 = getelementptr inbounds %class.cmCursesForm, ptr %6, i32 0, i32 1
  %46 = load ptr, ptr %45, align 8
  %47 = load ptr, ptr %4, align 8
  %48 = load i32, ptr %5, align 4
  %49 = sext i32 %48 to i64
  %50 = getelementptr inbounds i8, ptr %47, i64 %49
  %51 = load i8, ptr %50, align 1
  %52 = sext i8 %51 to i32
  %53 = call i32 @form_driver(ptr noundef %46, i32 noundef %52)
  br label %54

54:                                               ; preds = %44, %37
  %55 = load i32, ptr %5, align 4
  %56 = add nsw i32 %55, 1
  store i32 %56, ptr %5, align 4
  br label %7, !llvm.loop !5

57:                                               ; preds = %18
  %58 = getelementptr inbounds %class.cmCursesLongMessageForm, ptr %6, i32 0, i32 3
  %59 = load i32, ptr %58, align 8
  %60 = icmp eq i32 %59, 1
  br i1 %60, label %61, label %65

61:                                               ; preds = %57
  %62 = getelementptr inbounds %class.cmCursesForm, ptr %6, i32 0, i32 1
  %63 = load ptr, ptr %62, align 8
  %64 = call i32 @form_driver(ptr noundef %63, i32 noundef 535)
  br label %69

65:                                               ; preds = %57
  %66 = getelementptr inbounds %class.cmCursesForm, ptr %6, i32 0, i32 1
  %67 = load ptr, ptr %66, align 8
  %68 = call i32 @form_driver(ptr noundef %67, i32 noundef 534)
  br label %69

69:                                               ; preds = %65, %61
  ret void
}