; Function Attrs: mustprogress uwtable
define dso_local void @_ZNK23cmCursesLongMessageForm11DrawMessageEPKc(ptr nocapture noundef nonnull readonly align 8 dereferenceable(104) %0, ptr nocapture noundef readonly %1) local_unnamed_addr #0 align 2 {
  %3 = load i8, ptr %1, align 1
  %.not12 = icmp eq i8 %3, 0
  br i1 %.not12, label %._crit_edge, label %.lr.ph

.lr.ph:                                           ; preds = %2
  %4 = getelementptr inbounds i8, ptr %0, i64 8
  %invariant.gep = getelementptr i8, ptr %1, i64 1
  br label %5

5:                                                ; preds = %.lr.ph, %19
  %indvars.iv = phi i64 [ 0, %.lr.ph ], [ %indvars.iv.next, %19 ]
  %6 = phi i8 [ %3, %.lr.ph ], [ %21, %19 ]
  %7 = icmp eq i8 %6, 10
  br i1 %7, label %8, label %15

8:                                                ; preds = %5
  %gep = getelementptr i8, ptr %invariant.gep, i64 %indvars.iv
  %9 = load i8, ptr %gep, align 1
  %.not = icmp eq i8 %9, 0
  br i1 %.not, label %15, label %10

10:                                               ; preds = %8
  %11 = load ptr, ptr %4, align 8
  %12 = tail call i32 @form_driver(ptr noundef %11, i32 noundef 530)
  %13 = load ptr, ptr %4, align 8
  %14 = tail call i32 @form_driver(ptr noundef %13, i32 noundef 536)
  br label %19

15:                                               ; preds = %8, %5
  %16 = load ptr, ptr %4, align 8
  %17 = sext i8 %6 to i32
  %18 = tail call i32 @form_driver(ptr noundef %16, i32 noundef %17)
  br label %19

19:                                               ; preds = %15, %10
  %indvars.iv.next = add nuw nsw i64 %indvars.iv, 1
  %20 = getelementptr inbounds i8, ptr %1, i64 %indvars.iv.next
  %21 = load i8, ptr %20, align 1
  %22 = icmp ne i8 %21, 0
  %23 = icmp ult i64 %indvars.iv, 59999
  %24 = and i1 %23, %22
  br i1 %24, label %5, label %._crit_edge, !llvm.loop !5

._crit_edge:                                      ; preds = %19, %2
  %25 = getelementptr inbounds i8, ptr %0, i64 80
  %26 = load i32, ptr %25, align 8
  %27 = icmp eq i32 %26, 1
  %28 = getelementptr inbounds i8, ptr %0, i64 8
  %29 = load ptr, ptr %28, align 8
  %. = select i1 %27, i32 535, i32 534
  %30 = tail call i32 @form_driver(ptr noundef %29, i32 noundef %.)
  ret void
}